target datalayout = "e-m:e-p270:32:32-p271:32:32-p272:64:64-i64:64-i128:128-f80:128-n8:16:32:64-S128"
target triple = "x86_64-pc-linux-gnu"

%struct.packed_u32 = type { i32 }

; Function Attrs: nounwind uwtable
define internal i32 @get_u32(ptr noundef %0) #0 {
  %2 = alloca ptr, align 8
  store ptr %0, ptr %2, align 8
  %3 = load ptr, ptr %2, align 8
  %4 = getelementptr inbounds %struct.packed_u32, ptr %3, i32 0, i32 0
  %5 = load i32, ptr %4, align 1
  ret i32 %5
}

; Function Attrs: nounwind uwtable
define dso_local i32 @lre_get_flags(ptr noundef %0) #0 {
  %2 = alloca ptr, align 8
  store ptr %0, ptr %2, align 8
  %3 = load ptr, ptr %2, align 8
  %4 = getelementptr i8, ptr %3, i64 0
  %5 = load i8, ptr %4, align 1
  %6 = zext i8 %5 to i32
  ret i32 %6
}

; Function Attrs: nounwind uwtable
define dso_local ptr @lre_get_groupnames(ptr noundef %0) #0 {
  %2 = alloca ptr, align 8
  %3 = alloca ptr, align 8
  %4 = alloca i32, align 4
  store ptr %0, ptr %3, align 8
  %5 = load ptr, ptr %3, align 8
  %6 = call i32 @lre_get_flags(ptr noundef %5)
  %7 = and i32 %6, 128
  %8 = icmp eq i32 %7, 0
  br i1 %8, label %9, label %10

9:                                                ; preds = %1
  store ptr null, ptr %2, align 8
  br label %19

10:                                               ; preds = %1
  %11 = load ptr, ptr %3, align 8
  %12 = getelementptr i8, ptr %11, i64 3
  %13 = call i32 @get_u32(ptr noundef %12)
  store i32 %13, ptr %4, align 4
  %14 = load ptr, ptr %3, align 8
  %15 = getelementptr i8, ptr %14, i64 7
  %16 = load i32, ptr %4, align 4
  %17 = zext i32 %16 to i64
  %18 = getelementptr i8, ptr %15, i64 %17
  store ptr %18, ptr %2, align 8
  br label %19

19:                                               ; preds = %10, %9
  %20 = load ptr, ptr %2, align 8
  ret ptr %20
}