; Function Attrs: mustprogress nofree norecurse nosync nounwind willreturn memory(argmem: read) uwtable
define dso_local ptr @lre_get_groupnames(ptr noundef readonly %0) local_unnamed_addr #6 {
  %2 = load i8, ptr %0, align 1
  %3 = icmp sgt i8 %2, -1
  br i1 %3, label %9, label %4

4:                                                ; preds = %1
  %5 = getelementptr i8, ptr %0, i64 3
  %.val = load i32, ptr %5, align 1
  %6 = getelementptr i8, ptr %0, i64 7
  %7 = zext i32 %.val to i64
  %8 = getelementptr i8, ptr %6, i64 %7
  br label %9

9:                                                ; preds = %1, %4
  %.0 = phi ptr [ %8, %4 ], [ null, %1 ]
  ret ptr %.0
}